target datalayout = "e-m:e-p270:32:32-p271:32:32-p272:64:64-i64:64-i128:128-f80:128-n8:16:32:64-S128"
target triple = "x86_64-pc-linux-gnu"

%"class.bParse::bFile" = type <{ ptr, [7 x i8], i8, ptr, i32, i32, %class.b3HashMap, i32, [4 x i8], ptr, ptr, %class.b3AlignedObjectArray.4, %class.b3AlignedObjectArray.4, %class.b3AlignedObjectArray.6, %class.b3HashMap.8, %class.b3HashMap, i32, [4 x i8] }>
%class.b3AlignedObjectArray.4 = type <{ [4 x i8], i32, i32, [4 x i8], ptr, i8, [7 x i8] }>
%class.b3AlignedObjectArray.6 = type <{ [4 x i8], i32, i32, [4 x i8], ptr, i8, [7 x i8] }>
%class.b3HashMap.8 = type { %class.b3AlignedObjectArray, %class.b3AlignedObjectArray, %class.b3AlignedObjectArray.6, %class.b3AlignedObjectArray.2 }
%class.b3AlignedObjectArray = type <{ [4 x i8], i32, i32, [4 x i8], ptr, i8, [7 x i8] }>
%class.b3AlignedObjectArray.2 = type <{ [4 x i8], i32, i32, [4 x i8], ptr, i8, [7 x i8] }>
%class.b3HashMap = type { %class.b3AlignedObjectArray, %class.b3AlignedObjectArray, %class.b3AlignedObjectArray.0, %class.b3AlignedObjectArray.2 }
%class.b3AlignedObjectArray.0 = type <{ [4 x i8], i32, i32, [4 x i8], ptr, i8, [7 x i8] }>
%"class.bParse::bChunkInd" = type { i32, i32, ptr, i32, i32 }

@.str.26 = private unnamed_addr constant [40 x i8] c"<?xml version=\221.0\22 encoding=\22utf-8\22?>\0A\00", align 1
@.str.27 = private unnamed_addr constant [44 x i8] c"<bullet_physics version=%d itemcount = %d>\0A\00", align 1
@.str.28 = private unnamed_addr constant [18 x i8] c" <%s pointer=%p>\0A\00", align 1
@.str.29 = private unnamed_addr constant [8 x i8] c" </%s>\0A\00", align 1
@.str.30 = private unnamed_addr constant [19 x i8] c"</bullet_physics>\0A\00", align 1

; Function Attrs: inlinehint mustprogress nounwind uwtable
define linkonce_odr dso_local noundef nonnull align 8 dereferenceable(24) ptr @_ZN20b3AlignedObjectArrayIN6bParse9bChunkIndEE2atEi(ptr noundef nonnull align 8 dereferenceable(25) %0, i32 noundef %1) #3 comdat align 2 {
  %3 = alloca ptr, align 8
  %4 = alloca i32, align 4
  store ptr %0, ptr %3, align 8, !tbaa !54
  store i32 %1, ptr %4, align 4, !tbaa !9
  %5 = load ptr, ptr %3, align 8
  %6 = getelementptr inbounds nuw %class.b3AlignedObjectArray.6, ptr %5, i32 0, i32 4
  %7 = load ptr, ptr %6, align 8, !tbaa !174
  %8 = load i32, ptr %4, align 4, !tbaa !9
  %9 = sext i32 %8 to i64
  %10 = getelementptr inbounds %"class.bParse::bChunkInd", ptr %7, i64 %9
  ret ptr %10
}

; Function Attrs: inlinehint mustprogress nounwind uwtable
define linkonce_odr dso_local noundef i32 @_Z12b3GetVersionv() #3 comdat {
  ret i32 300
}

; Function Attrs: inlinehint mustprogress nounwind uwtable
define linkonce_odr dso_local noundef i32 @_ZNK20b3AlignedObjectArrayIN6bParse9bChunkIndEE4sizeEv(ptr noundef nonnull align 8 dereferenceable(25) %0) #3 comdat align 2 {
  %2 = alloca ptr, align 8
  store ptr %0, ptr %2, align 8, !tbaa !54
  %3 = load ptr, ptr %2, align 8
  %4 = getelementptr inbounds nuw %class.b3AlignedObjectArray.6, ptr %3, i32 0, i32 1
  %5 = load i32, ptr %4, align 4, !tbaa !173
  ret i32 %5
}

; Function Attrs: mustprogress uwtable
define dso_local void @_ZN6bParse5bFile15resolvePointersEi(ptr noundef nonnull align 8 dereferenceable(540) %0, i32 noundef %1) #0 align 2 {
  %3 = alloca ptr, align 8
  %4 = alloca i32, align 4
  %5 = alloca ptr, align 8
  %6 = alloca i32, align 4
  %7 = alloca i32, align 4
  %8 = alloca ptr, align 8
  %9 = alloca ptr, align 8
  %10 = alloca ptr, align 8
  store ptr %0, ptr %3, align 8, !tbaa !16
  store i32 %1, ptr %4, align 4, !tbaa !9
  %11 = load ptr, ptr %3, align 8
  call void @llvm.lifetime.start.p0(i64 8, ptr %5) #16
  %12 = getelementptr inbounds nuw %"class.bParse::bFile", ptr %11, i32 0, i32 9
  %13 = load ptr, ptr %12, align 8, !tbaa !44
  %14 = icmp ne ptr %13, null
  br i1 %14, label %15, label %18

15:                                               ; preds = %2
  %16 = getelementptr inbounds nuw %"class.bParse::bFile", ptr %11, i32 0, i32 9
  %17 = load ptr, ptr %16, align 8, !tbaa !44
  br label %21

18:                                               ; preds = %2
  %19 = getelementptr inbounds nuw %"class.bParse::bFile", ptr %11, i32 0, i32 10
  %20 = load ptr, ptr %19, align 8, !tbaa !45
  br label %21

21:                                               ; preds = %18, %15
  %22 = phi ptr [ %17, %15 ], [ %20, %18 ]
  store ptr %22, ptr %5, align 8, !tbaa !78
  call void @_ZN6bParse5bFile23resolvePointersMismatchEv(ptr noundef nonnull align 8 dereferenceable(540) %11)
  %23 = load i32, ptr %4, align 4, !tbaa !9
  %24 = and i32 %23, 1
  %25 = icmp ne i32 %24, 0
  br i1 %25, label %26, label %33

26:                                               ; preds = %21
  %27 = call i32 (ptr, ...) @printf(ptr noundef @.str.26)
  call void @llvm.lifetime.start.p0(i64 4, ptr %6) #16
  %28 = getelementptr inbounds nuw %"class.bParse::bFile", ptr %11, i32 0, i32 13
  %29 = call noundef i32 @_ZNK20b3AlignedObjectArrayIN6bParse9bChunkIndEE4sizeEv(ptr noundef nonnull align 8 dereferenceable(25) %28)
  store i32 %29, ptr %6, align 4, !tbaa !9
  %30 = call noundef i32 @_Z12b3GetVersionv()
  %31 = load i32, ptr %6, align 4, !tbaa !9
  %32 = call i32 (ptr, ...) @printf(ptr noundef @.str.27, i32 noundef %30, i32 noundef %31)
  call void @llvm.lifetime.end.p0(i64 4, ptr %6) #16
  br label %33

33:                                               ; preds = %26, %21
  call void @llvm.lifetime.start.p0(i64 4, ptr %7) #16
  store i32 0, ptr %7, align 4, !tbaa !9
  br label %34

34:                                               ; preds = %86, %33
  %35 = load i32, ptr %7, align 4, !tbaa !9
  %36 = getelementptr inbounds nuw %"class.bParse::bFile", ptr %11, i32 0, i32 13
  %37 = call noundef i32 @_ZNK20b3AlignedObjectArrayIN6bParse9bChunkIndEE4sizeEv(ptr noundef nonnull align 8 dereferenceable(25) %36)
  %38 = icmp slt i32 %35, %37
  br i1 %38, label %40, label %39

39:                                               ; preds = %34
  call void @llvm.lifetime.end.p0(i64 4, ptr %7) #16
  br label %89

40:                                               ; preds = %34
  call void @llvm.lifetime.start.p0(i64 8, ptr %8) #16
  %41 = getelementptr inbounds nuw %"class.bParse::bFile", ptr %11, i32 0, i32 13
  %42 = load i32, ptr %7, align 4, !tbaa !9
  %43 = call noundef nonnull align 8 dereferenceable(24) ptr @_ZN20b3AlignedObjectArrayIN6bParse9bChunkIndEE2atEi(ptr noundef nonnull align 8 dereferenceable(25) %41, i32 noundef %42)
  store ptr %43, ptr %8, align 8, !tbaa !66
  %44 = getelementptr inbounds nuw %"class.bParse::bFile", ptr %11, i32 0, i32 9
  %45 = load ptr, ptr %44, align 8, !tbaa !44
  %46 = icmp ne ptr %45, null
  br i1 %46, label %47, label %53

47:                                               ; preds = %40
  %48 = load ptr, ptr %5, align 8, !tbaa !78
  %49 = load ptr, ptr %8, align 8, !tbaa !66
  %50 = getelementptr inbounds nuw %"class.bParse::bChunkInd", ptr %49, i32 0, i32 3
  %51 = load i32, ptr %50, align 8, !tbaa !79
  %52 = call noundef zeroext i1 @_ZN6bParse4bDNA9flagEqualEi(ptr noundef nonnull align 8 dereferenceable(420) %48, i32 noundef %51)
  br i1 %52, label %53, label %84

53:                                               ; preds = %47, %40
  call void @llvm.lifetime.start.p0(i64 8, ptr %9) #16
  %54 = load ptr, ptr %5, align 8, !tbaa !78
  %55 = load ptr, ptr %8, align 8, !tbaa !66
  %56 = getelementptr inbounds nuw %"class.bParse::bChunkInd", ptr %55, i32 0, i32 3
  %57 = load i32, ptr %56, align 8, !tbaa !79
  %58 = call noundef ptr @_ZN6bParse4bDNA9getStructEi(ptr noundef nonnull align 8 dereferenceable(420) %54, i32 noundef %57)
  store ptr %58, ptr %9, align 8, !tbaa !80
  call void @llvm.lifetime.start.p0(i64 8, ptr %10) #16
  %59 = load ptr, ptr %5, align 8, !tbaa !78
  %60 = load ptr, ptr %9, align 8, !tbaa !80
  %61 = getelementptr inbounds i16, ptr %60, i64 0
  %62 = load i16, ptr %61, align 2, !tbaa !82
  %63 = sext i16 %62 to i32
  %64 = call noundef ptr @_ZN6bParse4bDNA7getTypeEi(ptr noundef nonnull align 8 dereferenceable(420) %59, i32 noundef %63)
  store ptr %64, ptr %10, align 8, !tbaa !4
  %65 = load i32, ptr %4, align 4, !tbaa !9
  %66 = and i32 %65, 1
  %67 = icmp ne i32 %66, 0
  br i1 %67, label %68, label %74

68:                                               ; preds = %53
  %69 = load ptr, ptr %10, align 8, !tbaa !4
  %70 = load ptr, ptr %8, align 8, !tbaa !66
  %71 = getelementptr inbounds nuw %"class.bParse::bChunkInd", ptr %70, i32 0, i32 2
  %72 = load ptr, ptr %71, align 8, !tbaa !61
  %73 = call i32 (ptr, ...) @printf(ptr noundef @.str.28, ptr noundef %69, ptr noundef %72)
  br label %74

74:                                               ; preds = %68, %53
  %75 = load ptr, ptr %8, align 8, !tbaa !66
  %76 = load i32, ptr %4, align 4, !tbaa !9
  call void @_ZN6bParse5bFile20resolvePointersChunkERKNS_9bChunkIndEi(ptr noundef nonnull align 8 dereferenceable(540) %11, ptr noundef nonnull align 8 dereferenceable(24) %75, i32 noundef %76)
  %77 = load i32, ptr %4, align 4, !tbaa !9
  %78 = and i32 %77, 1
  %79 = icmp ne i32 %78, 0
  br i1 %79, label %80, label %83

80:                                               ; preds = %74
  %81 = load ptr, ptr %10, align 8, !tbaa !4
  %82 = call i32 (ptr, ...) @printf(ptr noundef @.str.29, ptr noundef %81)
  br label %83

83:                                               ; preds = %80, %74
  call void @llvm.lifetime.end.p0(i64 8, ptr %10) #16
  call void @llvm.lifetime.end.p0(i64 8, ptr %9) #16
  br label %85

84:                                               ; preds = %47
  br label %85

85:                                               ; preds = %84, %83
  call void @llvm.lifetime.end.p0(i64 8, ptr %8) #16
  br label %86

86:                                               ; preds = %85
  %87 = load i32, ptr %7, align 4, !tbaa !9
  %88 = add nsw i32 %87, 1
  store i32 %88, ptr %7, align 4, !tbaa !9
  br label %34, !llvm.loop !84

89:                                               ; preds = %39
  %90 = load i32, ptr %4, align 4, !tbaa !9
  %91 = and i32 %90, 1
  %92 = icmp ne i32 %91, 0
  br i1 %92, label %93, label %95

93:                                               ; preds = %89
  %94 = call i32 (ptr, ...) @printf(ptr noundef @.str.30)
  br label %95

95:                                               ; preds = %93, %89
  call void @llvm.lifetime.end.p0(i64 8, ptr %5) #16
  ret void
}