; Function Attrs: mustprogress uwtable
define dso_local void @_ZN6bParse5bFile15resolvePointersEi(ptr noundef nonnull align 8 dereferenceable(540) %0, i32 noundef %1) local_unnamed_addr #3 align 2 {
  %3 = getelementptr inbounds nuw i8, ptr %0, i64 168
  %4 = load ptr, ptr %3, align 8, !tbaa !65
  %.not = icmp eq ptr %4, null
  %5 = getelementptr inbounds nuw i8, ptr %0, i64 176
  %6 = load ptr, ptr %5, align 8
  %7 = select i1 %.not, ptr %6, ptr %4
  tail call void @_ZN6bParse5bFile23resolvePointersMismatchEv(ptr noundef nonnull align 8 dereferenceable(540) %0)
  %8 = and i32 %1, 1
  %.not20 = icmp eq i32 %8, 0
  br i1 %.not20, label %9, label %.thread

9:                                                ; preds = %2
  %10 = getelementptr inbounds nuw i8, ptr %0, i64 252
  %11 = load i32, ptr %10, align 4, !tbaa !54
  %12 = icmp sgt i32 %11, 0
  br i1 %12, label %.lr.ph.split.us.preheader, label %._crit_edge

.thread:                                          ; preds = %2
  %puts = tail call i32 @puts(ptr nonnull dereferenceable(1) @str)
  %13 = getelementptr inbounds nuw i8, ptr %0, i64 252
  %14 = load i32, ptr %13, align 4, !tbaa !54
  %15 = tail call i32 (ptr, ...) @printf(ptr noundef nonnull dereferenceable(1) @.str.27, i32 noundef 300, i32 noundef %14)
  %16 = getelementptr inbounds nuw i8, ptr %0, i64 252
  %17 = load i32, ptr %16, align 4, !tbaa !54
  %18 = icmp sgt i32 %17, 0
  br i1 %18, label %.lr.ph.split.preheader, label %._crit_edge.thread

.lr.ph.split.preheader:                           ; preds = %.thread
  %19 = getelementptr inbounds nuw i8, ptr %0, i64 264
  br label %.lr.ph.split

.lr.ph.split.us.preheader:                        ; preds = %9
  %20 = getelementptr inbounds nuw i8, ptr %0, i64 264
  br label %.lr.ph.split.us

.lr.ph.split.us:                                  ; preds = %.lr.ph.split.us.preheader, %34
  %indvars.iv26 = phi i64 [ 0, %.lr.ph.split.us.preheader ], [ %indvars.iv.next27, %34 ]
  %21 = load ptr, ptr %20, align 8, !tbaa !53
  %22 = getelementptr inbounds nuw %"class.bParse::bChunkInd", ptr %21, i64 %indvars.iv26
  %23 = load ptr, ptr %3, align 8, !tbaa !65
  %.not22.us = icmp eq ptr %23, null
  br i1 %.not22.us, label %.critedge.us, label %24

24:                                               ; preds = %.lr.ph.split.us
  %25 = getelementptr inbounds nuw i8, ptr %22, i64 16
  %26 = load i32, ptr %25, align 8, !tbaa !80
  %27 = tail call noundef zeroext i1 @_ZN6bParse4bDNA9flagEqualEi(ptr noundef nonnull align 8 dereferenceable(420) %7, i32 noundef %26)
  br i1 %27, label %.critedge.us, label %34

.critedge.us:                                     ; preds = %24, %.lr.ph.split.us
  %28 = getelementptr inbounds nuw i8, ptr %22, i64 16
  %29 = load i32, ptr %28, align 8, !tbaa !80
  %30 = tail call noundef ptr @_ZN6bParse4bDNA9getStructEi(ptr noundef nonnull align 8 dereferenceable(420) %7, i32 noundef %29)
  %31 = load i16, ptr %30, align 2, !tbaa !81
  %32 = sext i16 %31 to i32
  %33 = tail call noundef ptr @_ZN6bParse4bDNA7getTypeEi(ptr noundef nonnull align 8 dereferenceable(420) %7, i32 noundef %32)
  tail call void @_ZN6bParse5bFile20resolvePointersChunkERKNS_9bChunkIndEi(ptr noundef nonnull align 8 dereferenceable(540) %0, ptr noundef nonnull align 8 dereferenceable(24) %22, i32 noundef %1)
  br label %34

34:                                               ; preds = %.critedge.us, %24
  %indvars.iv.next27 = add nuw nsw i64 %indvars.iv26, 1
  %35 = load i32, ptr %10, align 4, !tbaa !54
  %36 = sext i32 %35 to i64
  %37 = icmp slt i64 %indvars.iv.next27, %36
  br i1 %37, label %.lr.ph.split.us, label %._crit_edge, !llvm.loop !83

._crit_edge:                                      ; preds = %56, %34, %9
  br i1 %.not20, label %60, label %._crit_edge.thread

.lr.ph.split:                                     ; preds = %.lr.ph.split.preheader, %56
  %indvars.iv = phi i64 [ 0, %.lr.ph.split.preheader ], [ %indvars.iv.next, %56 ]
  %38 = load ptr, ptr %19, align 8, !tbaa !53
  %39 = getelementptr inbounds nuw %"class.bParse::bChunkInd", ptr %38, i64 %indvars.iv
  %40 = load ptr, ptr %3, align 8, !tbaa !65
  %.not22 = icmp eq ptr %40, null
  br i1 %.not22, label %45, label %41

41:                                               ; preds = %.lr.ph.split
  %42 = getelementptr inbounds nuw i8, ptr %39, i64 16
  %43 = load i32, ptr %42, align 8, !tbaa !80
  %44 = tail call noundef zeroext i1 @_ZN6bParse4bDNA9flagEqualEi(ptr noundef nonnull align 8 dereferenceable(420) %7, i32 noundef %43)
  br i1 %44, label %45, label %56

45:                                               ; preds = %41, %.lr.ph.split
  %46 = getelementptr inbounds nuw i8, ptr %39, i64 16
  %47 = load i32, ptr %46, align 8, !tbaa !80
  %48 = tail call noundef ptr @_ZN6bParse4bDNA9getStructEi(ptr noundef nonnull align 8 dereferenceable(420) %7, i32 noundef %47)
  %49 = load i16, ptr %48, align 2, !tbaa !81
  %50 = sext i16 %49 to i32
  %51 = tail call noundef ptr @_ZN6bParse4bDNA7getTypeEi(ptr noundef nonnull align 8 dereferenceable(420) %7, i32 noundef %50)
  %52 = getelementptr inbounds nuw i8, ptr %39, i64 8
  %53 = load ptr, ptr %52, align 8, !tbaa !66
  %54 = tail call i32 (ptr, ...) @printf(ptr noundef nonnull dereferenceable(1) @.str.28, ptr noundef %51, ptr noundef %53)
  tail call void @_ZN6bParse5bFile20resolvePointersChunkERKNS_9bChunkIndEi(ptr noundef nonnull align 8 dereferenceable(540) %0, ptr noundef nonnull align 8 dereferenceable(24) %39, i32 noundef %1)
  %55 = tail call i32 (ptr, ...) @printf(ptr noundef nonnull dereferenceable(1) @.str.29, ptr noundef %51)
  br label %56

56:                                               ; preds = %45, %41
  %indvars.iv.next = add nuw nsw i64 %indvars.iv, 1
  %57 = load i32, ptr %16, align 4, !tbaa !54
  %58 = sext i32 %57 to i64
  %59 = icmp slt i64 %indvars.iv.next, %58
  br i1 %59, label %.lr.ph.split, label %._crit_edge, !llvm.loop !83

._crit_edge.thread:                               ; preds = %.thread, %._crit_edge
  %puts21 = tail call i32 @puts(ptr nonnull dereferenceable(1) @str.1)
  br label %60

60:                                               ; preds = %._crit_edge.thread, %._crit_edge
  ret void
}